target datalayout = "e-m:e-p270:32:32-p271:32:32-p272:64:64-i64:64-i128:128-f80:128-n8:16:32:64-S128"
target triple = "x86_64-pc-linux-gnu"

%struct.timeval = type { i64, i64 }
%struct.connection = type { i32, ptr, i32, %struct.timeval, ptr, i32 }

@tries = internal global i32 0, align 4
@__PRETTY_FUNCTION__.reconnect = private unnamed_addr constant [25 x i8] c"void reconnect(conn_t *)\00", align 1
@.str.173 = private unnamed_addr constant [30 x i8] c"Unable to reconnect to %s: %s\00", align 1

; Function Attrs: nounwind uwtable
define internal void @reconnect(ptr noundef %0) #0 {
  %2 = alloca ptr, align 8
  store ptr %0, ptr %2, align 8
  %3 = load i32, ptr @tries, align 4
  %4 = add nsw i32 %3, 1
  store i32 %4, ptr @tries, align 4
  %5 = icmp sgt i32 %4, 3
  br i1 %5, label %6, label %7

6:                                                ; preds = %1
  call void @exit_program(i32 noundef 4, ptr noundef @__PRETTY_FUNCTION__.reconnect, i32 noundef 839) #16
  unreachable

7:                                                ; preds = %1
  %8 = load ptr, ptr %2, align 8
  %9 = getelementptr inbounds %struct.connection, ptr %8, i32 0, i32 0
  %10 = load i32, ptr %9, align 8
  %11 = icmp ne i32 %10, -1
  br i1 %11, label %12, label %17

12:                                               ; preds = %7
  %13 = load ptr, ptr %2, align 8
  %14 = getelementptr inbounds %struct.connection, ptr %13, i32 0, i32 0
  %15 = load i32, ptr %14, align 8
  %16 = call i32 @close(i32 noundef %15)
  br label %17

17:                                               ; preds = %12, %7
  %18 = load ptr, ptr %2, align 8
  %19 = getelementptr inbounds %struct.connection, ptr %18, i32 0, i32 1
  %20 = load ptr, ptr %19, align 8
  %21 = load ptr, ptr %2, align 8
  %22 = call i32 @make_connection(ptr noundef %20, ptr noundef %21)
  %23 = icmp slt i32 %22, 0
  br i1 %23, label %24, label %32

24:                                               ; preds = %17
  %25 = load ptr, ptr %2, align 8
  %26 = load ptr, ptr %2, align 8
  %27 = getelementptr inbounds %struct.connection, ptr %26, i32 0, i32 1
  %28 = load ptr, ptr %27, align 8
  %29 = call ptr @__errno_location() #19
  %30 = load i32, ptr %29, align 4
  %31 = call ptr @strerror(i32 noundef %30) #13
  call void (ptr, ptr, ...) @print_con_info(ptr noundef %25, ptr noundef @.str.173, ptr noundef %28, ptr noundef %31)
  call void @exit_program(i32 noundef 4, ptr noundef @__PRETTY_FUNCTION__.reconnect, i32 noundef 850) #16
  unreachable

32:                                               ; preds = %17
  store i32 0, ptr @tries, align 4
  ret void
}