; Function Attrs: nounwind uwtable
define internal fastcc void @reconnect(ptr noundef %0) unnamed_addr #0 {
  %2 = load i32, ptr @tries, align 4
  %3 = add nsw i32 %2, 1
  store i32 %3, ptr @tries, align 4
  %4 = icmp sgt i32 %2, 2
  br i1 %4, label %5, label %6

5:                                                ; preds = %1
  tail call fastcc void @exit_program(i32 noundef 4, ptr noundef nonnull @__PRETTY_FUNCTION__.reconnect, i32 noundef 839) #29
  unreachable

6:                                                ; preds = %1
  %7 = load i32, ptr %0, align 8
  %.not = icmp eq i32 %7, -1
  br i1 %.not, label %10, label %8

8:                                                ; preds = %6
  %9 = tail call i32 @close(i32 noundef %7) #25
  br label %10

10:                                               ; preds = %8, %6
  %11 = getelementptr inbounds i8, ptr %0, i64 8
  %12 = load ptr, ptr %11, align 8
  %13 = tail call fastcc i32 @make_connection(ptr noundef %12, ptr noundef nonnull %0), !range !5
  %14 = icmp slt i32 %13, 0
  br i1 %14, label %15, label %20

15:                                               ; preds = %10
  %16 = load ptr, ptr %11, align 8
  %17 = tail call ptr @__errno_location() #33
  %18 = load i32, ptr %17, align 4
  %19 = tail call ptr @strerror(i32 noundef %18) #25
  tail call void (ptr, ptr, ...) @print_con_info(ptr noundef nonnull %0, ptr noundef nonnull @.str.173, ptr noundef %16, ptr noundef %19)
  tail call fastcc void @exit_program(i32 noundef 4, ptr noundef nonnull @__PRETTY_FUNCTION__.reconnect, i32 noundef 850) #29
  unreachable

20:                                               ; preds = %10
  store i32 0, ptr @tries, align 4
  ret void
}